; ModuleID = '16/1212.c'
source_filename = "16/1212.c"
target datalayout = "e-m:e-p270:32:32-p271:32:32-p272:64:64-i64:64-f80:128-n8:16:32:64-S128"
target triple = "x86_64-pc-linux-gnu"

@.str = private unnamed_addr constant [3 x i8] c"%d\00", align 1

; Function Attrs: noinline nounwind uwtable
define dso_local i32 @main() #0 {
  %1 = alloca i32, align 4
  %2 = alloca i32, align 4
  %3 = alloca i32, align 4
  %4 = alloca i32, align 4
  %5 = alloca i32, align 4
  %6 = alloca i32, align 4
  store i32 0, i32* %1, align 4
  %7 = call i32 (i8*, ...) @__isoc99_scanf(i8* getelementptr inbounds ([3 x i8], [3 x i8]* @.str, i64 0, i64 0), i32* %2)
  %8 = load i32, i32* %2, align 4
  %9 = icmp eq i32 %8, 10000
  br i1 %9, label %10, label %11

10:                                               ; preds = %0
  store i32 1, i32* %2, align 4
  br label %74

11:                                               ; preds = %0
  %12 = load i32, i32* %2, align 4
  %13 = icmp sge i32 %12, 1000
  br i1 %13, label %14, label %37

14:                                               ; preds = %11
  %15 = load i32, i32* %2, align 4
  %16 = srem i32 %15, 10
  store i32 %16, i32* %3, align 4
  %17 = load i32, i32* %2, align 4
  %18 = load i32, i32* %3, align 4
  %19 = sub nsw i32 %17, %18
  %20 = srem i32 %19, 100
  %21 = sdiv i32 %20, 10
  store i32 %21, i32* %4, align 4
  %22 = load i32, i32* %2, align 4
  %23 = sdiv i32 %22, 1000
  store i32 %23, i32* %6, align 4
  %24 = load i32, i32* %2, align 4
  %25 = sdiv i32 %24, 100
  %26 = load i32, i32* %6, align 4
  %27 = mul nsw i32 %26, 10
  %28 = sub nsw i32 %25, %27
  store i32 %28, i32* %5, align 4
  %29 = load i32, i32* %3, align 4
  %30 = call i32 (i8*, ...) @printf(i8* getelementptr inbounds ([3 x i8], [3 x i8]* @.str, i64 0, i64 0), i32 %29)
  %31 = load i32, i32* %4, align 4
  %32 = call i32 (i8*, ...) @printf(i8* getelementptr inbounds ([3 x i8], [3 x i8]* @.str, i64 0, i64 0), i32 %31)
  %33 = load i32, i32* %5, align 4
  %34 = call i32 (i8*, ...) @printf(i8* getelementptr inbounds ([3 x i8], [3 x i8]* @.str, i64 0, i64 0), i32 %33)
  %35 = load i32, i32* %6, align 4
  %36 = call i32 (i8*, ...) @printf(i8* getelementptr inbounds ([3 x i8], [3 x i8]* @.str, i64 0, i64 0), i32 %35)
  br label %73

37:                                               ; preds = %11
  %38 = load i32, i32* %2, align 4
  %39 = icmp sge i32 %38, 100
  br i1 %39, label %40, label %56

40:                                               ; preds = %37
  %41 = load i32, i32* %2, align 4
  %42 = srem i32 %41, 10
  store i32 %42, i32* %3, align 4
  %43 = load i32, i32* %2, align 4
  %44 = load i32, i32* %3, align 4
  %45 = sub nsw i32 %43, %44
  %46 = srem i32 %45, 100
  %47 = sdiv i32 %46, 10
  store i32 %47, i32* %4, align 4
  %48 = load i32, i32* %2, align 4
  %49 = sdiv i32 %48, 100
  store i32 %49, i32* %5, align 4
  %50 = load i32, i32* %3, align 4
  %51 = call i32 (i8*, ...) @printf(i8* getelementptr inbounds ([3 x i8], [3 x i8]* @.str, i64 0, i64 0), i32 %50)
  %52 = load i32, i32* %4, align 4
  %53 = call i32 (i8*, ...) @printf(i8* getelementptr inbounds ([3 x i8], [3 x i8]* @.str, i64 0, i64 0), i32 %52)
  %54 = load i32, i32* %5, align 4
  %55 = call i32 (i8*, ...) @printf(i8* getelementptr inbounds ([3 x i8], [3 x i8]* @.str, i64 0, i64 0), i32 %54)
  br label %72

56:                                               ; preds = %37
  %57 = load i32, i32* %2, align 4
  %58 = icmp sge i32 %57, 10
  br i1 %58, label %59, label %68

59:                                               ; preds = %56
  %60 = load i32, i32* %2, align 4
  %61 = srem i32 %60, 10
  store i32 %61, i32* %3, align 4
  %62 = load i32, i32* %2, align 4
  %63 = sdiv i32 %62, 10
  store i32 %63, i32* %4, align 4
  %64 = load i32, i32* %3, align 4
  %65 = call i32 (i8*, ...) @printf(i8* getelementptr inbounds ([3 x i8], [3 x i8]* @.str, i64 0, i64 0), i32 %64)
  %66 = load i32, i32* %4, align 4
  %67 = call i32 (i8*, ...) @printf(i8* getelementptr inbounds ([3 x i8], [3 x i8]* @.str, i64 0, i64 0), i32 %66)
  br label %71

68:                                               ; preds = %56
  %69 = load i32, i32* %2, align 4
  %70 = call i32 (i8*, ...) @printf(i8* getelementptr inbounds ([3 x i8], [3 x i8]* @.str, i64 0, i64 0), i32 %69)
  br label %71

71:                                               ; preds = %68, %59
  br label %72

72:                                               ; preds = %71, %40
  br label %73

73:                                               ; preds = %72, %14
  br label %74

74:                                               ; preds = %73, %10
  ret i32 0
}

declare dso_local i32 @__isoc99_scanf(i8*, ...) #1

declare dso_local i32 @printf(i8*, ...) #1


!llvm.module.flags = !{!0}
!llvm.ident = !{!1}

!0 = !{i32 1, !"wchar_size", i32 4}
!1 = !{!"clang version 10.0.0-4ubuntu1 "}
